; Function Attrs: nounwind uwtable
define void @Abc_TtStoreTest(ptr noundef %0) local_unnamed_addr #9 {
  %2 = tail call ptr @Abc_TtStoreLoad(ptr noundef %0, i32 noundef -1)
  %3 = icmp eq ptr %2, null
  br i1 %3, label %8, label %4

4:                                                ; preds = %1
  tail call void @Abc_TtStoreWrite(ptr noundef nonnull @.str.11, ptr noundef nonnull %2, i32 noundef 0)
  %5 = getelementptr inbounds nuw i8, ptr %2, i64 16
  %6 = load ptr, ptr %5, align 8, !tbaa !18
  %.not10.i = icmp eq ptr %6, null
  br i1 %.not10.i, label %Abc_TtStoreFree.exit, label %.thread.i

.thread.i:                                        ; preds = %4
  tail call void @free(ptr noundef nonnull %6) #21
  br label %Abc_TtStoreFree.exit

Abc_TtStoreFree.exit:                             ; preds = %4, %.thread.i
  tail call void @free(ptr noundef nonnull %2) #21
  %7 = tail call i32 (ptr, ...) @printf(ptr noundef nonnull dereferenceable(1) @.str.10, ptr noundef %0, ptr noundef nonnull @.str.11)
  br label %8

8:                                                ; preds = %1, %Abc_TtStoreFree.exit
  ret void
}